target datalayout = "e-m:e-p270:32:32-p271:32:32-p272:64:64-i64:64-i128:128-f80:128-n8:16:32:64-S128"
target triple = "x86_64-pc-linux-gnu"

%class.OopClosure = type { ptr }
%class.ZMark = type <{ ptr, ptr, [48 x i8], %class.ZMarkStackAllocator, %class.ZMarkStripeSet, %class.ZMarkTerminate, i64, i64, i64, i64, i64, i64, i32, [36 x i8] }>
%class.ZMarkStackAllocator = type <{ [64 x i8], %class.ZMarkStackSpace, [56 x i8], %class.ZStackList, i8, [63 x i8] }>
%class.ZMarkStackSpace = type <{ %class.ZLock, i64, i64, i64, i8, [7 x i8] }>
%class.ZLock = type { %class.PlatformMutex }
%class.PlatformMutex = type { %union.pthread_mutex_t }
%union.pthread_mutex_t = type { %struct.__pthread_mutex_s }
%struct.__pthread_mutex_s = type { i32, i32, i32, i32, i32, i16, i16, %struct.__pthread_internal_list }
%struct.__pthread_internal_list = type { ptr, ptr }
%class.ZStackList = type { i64, ptr, [48 x i8] }
%class.ZMarkStripeSet = type { i64, [56 x i8], [16 x %class.ZMarkStripe] }
%class.ZMarkStripe = type { %class.ZStackList.1, %class.ZStackList.1 }
%class.ZStackList.1 = type { i64, ptr, [48 x i8] }
%class.ZMarkTerminate = type { i32, i32, i32, i8, %class.ZConditionLock }
%class.ZConditionLock = type { %class.PlatformMonitor }
%class.PlatformMonitor = type { %class.PlatformMutex, %union.pthread_cond_t }
%union.pthread_cond_t = type { %struct.__pthread_cond_s }
%struct.__pthread_cond_s = type { %union.__atomic_wide_counter, %union.__atomic_wide_counter, [2 x i32], [2 x i32], i32, i32, [2 x i32] }
%union.__atomic_wide_counter = type { i64 }
%class.ThreadClosure = type { ptr }
%class.SuspendibleThreadSetJoiner = type { i8 }
%class.ZTask = type { ptr, %"class.ZTask::Task" }
%"class.ZTask::Task" = type { %class.WorkerTask.base, ptr }
%class.WorkerTask.base = type <{ ptr, ptr, i32 }>
%class.ZParallelApply = type { %class.ZOopStorageSetIteratorStrong, i8, [7 x i8] }
%class.ZOopStorageSetIteratorStrong = type <{ %class.OopStorageSetStrongParState, i8, [7 x i8] }>
%class.OopStorageSetStrongParState = type { %class.OopStorageSetParState }
%class.OopStorageSetParState = type { %struct.ValueObjArray }
%struct.ValueObjArray = type { [5 x ptr], %class.ValueObjBlock }
%class.ValueObjBlock = type { %"class.OopStorage::ParState", %class.ValueObjBlock.18 }
%"class.OopStorage::ParState" = type { %"class.OopStorage::BasicParState" }
%"class.OopStorage::BasicParState" = type { ptr, ptr, i64, i64, i32, i8, i64 }
%class.ValueObjBlock.18 = type { %"class.OopStorage::ParState", %class.ValueObjBlock.19 }
%class.ValueObjBlock.19 = type { %"class.OopStorage::ParState", %class.ValueObjBlock.20 }
%class.ValueObjBlock.20 = type { %"class.OopStorage::ParState", %class.ValueObjBlock.21 }
%class.ValueObjBlock.21 = type <{ %"class.OopStorage::ParState", %class.ValueObjBlock.22, [7 x i8] }>
%class.ValueObjBlock.22 = type { i8 }
%class.ZParallelApply.34 = type { %class.ZJavaThreadsIterator, i8, [7 x i8] }
%class.ZJavaThreadsIterator = type <{ %class.ThreadsListHandle, i32, i8, [3 x i8] }>
%class.ThreadsListHandle = type { %class.SafeThreadsListPtr, %class.elapsedTimer }
%class.SafeThreadsListPtr = type <{ ptr, ptr, ptr, i8, i8, [6 x i8] }>
%class.elapsedTimer = type <{ i64, i64, i8, [7 x i8] }>
%class.ZNMethodsIteratorImpl = type { i8, i8, i8 }
%class.CLDToOopClosure.base = type <{ %class.CLDClosure, ptr, i32 }>
%class.CLDClosure = type { ptr }
%class.ZMarkThreadClosure = type { %class.ThreadClosure }
%class.NMethodClosure = type { ptr }
%class.ZMarkOldRootsTask = type { %class.ZTask, ptr, %class.ZRootsIteratorStrongColored, %class.ZRootsIteratorStrongUncolored, %class.ZMarkOopClosure, %class.ClaimingCLDToOopClosure.39, %class.ZMarkThreadClosure, %class.ZMarkNMethodClosure }
%class.ZRootsIteratorStrongColored = type { %class.ZParallelApply, %class.ZParallelApply.37, [6 x i8] }
%class.ZParallelApply.37 = type { %class.ZCLDsIteratorStrong, i8 }
%class.ZCLDsIteratorStrong = type { i8 }
%class.ZRootsIteratorStrongUncolored = type { %class.ZParallelApply.34, %class.ZParallelApply.38, [4 x i8] }
%class.ZParallelApply.38 = type { %class.ZNMethodsIteratorStrong, i8 }
%class.ZNMethodsIteratorStrong = type { %class.ZNMethodsIteratorImpl }
%class.ZMarkOopClosure = type { %class.OopClosure }
%class.ClaimingCLDToOopClosure.39 = type { %class.CLDToOopClosure.base, [4 x i8] }
%class.ZMarkNMethodClosure = type { %class.NMethodClosure, ptr }

@_ZTV18ZMarkThreadClosure = linkonce_odr hidden unnamed_addr constant { [3 x ptr] } { [3 x ptr] [ptr null, ptr null, ptr @_ZN18ZMarkThreadClosure9do_threadEP6Thread] }, comdat, align 8
@_ZTV17ZMarkOldRootsTask = linkonce_odr hidden unnamed_addr constant { [3 x ptr] } { [3 x ptr] [ptr null, ptr null, ptr @_ZN17ZMarkOldRootsTask4workEv] }, comdat, align 8

; Function Attrs: mustprogress nounwind uwtable
define linkonce_odr hidden void @_ZN13ValueObjBlockIN10OopStorage8ParStateILb1ELb0EEELi1EED2Ev(ptr noundef nonnull align 8 dereferenceable(49) %0) unnamed_addr #1 comdat align 2 {
  %2 = alloca ptr, align 8
  store ptr %0, ptr %2, align 8
  %3 = load ptr, ptr %2, align 8
  %4 = getelementptr inbounds %class.ValueObjBlock.21, ptr %3, i32 0, i32 0
  call void @_ZN10OopStorage8ParStateILb1ELb0EED2Ev(ptr noundef nonnull align 8 dereferenceable(48) %4) #11
  ret void
}

; Function Attrs: mustprogress nounwind uwtable
define linkonce_odr hidden void @_ZN13ValueObjBlockIN10OopStorage8ParStateILb1ELb0EEELi2EED2Ev(ptr noundef nonnull align 8 dereferenceable(104) %0) unnamed_addr #1 comdat align 2 {
  %2 = alloca ptr, align 8
  store ptr %0, ptr %2, align 8
  %3 = load ptr, ptr %2, align 8
  %4 = getelementptr inbounds %class.ValueObjBlock.20, ptr %3, i32 0, i32 1
  call void @_ZN13ValueObjBlockIN10OopStorage8ParStateILb1ELb0EEELi1EED2Ev(ptr noundef nonnull align 8 dereferenceable(49) %4) #11
  %5 = getelementptr inbounds %class.ValueObjBlock.20, ptr %3, i32 0, i32 0
  call void @_ZN10OopStorage8ParStateILb1ELb0EED2Ev(ptr noundef nonnull align 8 dereferenceable(48) %5) #11
  ret void
}

; Function Attrs: mustprogress nounwind uwtable
define linkonce_odr hidden void @_ZN13ValueObjBlockIN10OopStorage8ParStateILb1ELb0EEELi3EED2Ev(ptr noundef nonnull align 8 dereferenceable(152) %0) unnamed_addr #1 comdat align 2 {
  %2 = alloca ptr, align 8
  store ptr %0, ptr %2, align 8
  %3 = load ptr, ptr %2, align 8
  %4 = getelementptr inbounds %class.ValueObjBlock.19, ptr %3, i32 0, i32 1
  call void @_ZN13ValueObjBlockIN10OopStorage8ParStateILb1ELb0EEELi2EED2Ev(ptr noundef nonnull align 8 dereferenceable(104) %4) #11
  %5 = getelementptr inbounds %class.ValueObjBlock.19, ptr %3, i32 0, i32 0
  call void @_ZN10OopStorage8ParStateILb1ELb0EED2Ev(ptr noundef nonnull align 8 dereferenceable(48) %5) #11
  ret void
}

; Function Attrs: mustprogress nounwind uwtable
define linkonce_odr hidden void @_ZN10OopStorage8ParStateILb1ELb0EED2Ev(ptr noundef nonnull align 8 dereferenceable(48) %0) unnamed_addr #1 comdat align 2 {
  %2 = alloca ptr, align 8
  store ptr %0, ptr %2, align 8
  %3 = load ptr, ptr %2, align 8
  %4 = getelementptr inbounds %"class.OopStorage::ParState", ptr %3, i32 0, i32 0
  call void @_ZN10OopStorage13BasicParStateD1Ev(ptr noundef nonnull align 8 dereferenceable(48) %4) #11
  ret void
}

; Function Attrs: mustprogress nounwind uwtable
define linkonce_odr hidden void @_ZN13ValueObjBlockIN10OopStorage8ParStateILb1ELb0EEELi4EED2Ev(ptr noundef nonnull align 8 dereferenceable(200) %0) unnamed_addr #1 comdat align 2 {
  %2 = alloca ptr, align 8
  store ptr %0, ptr %2, align 8
  %3 = load ptr, ptr %2, align 8
  %4 = getelementptr inbounds %class.ValueObjBlock.18, ptr %3, i32 0, i32 1
  call void @_ZN13ValueObjBlockIN10OopStorage8ParStateILb1ELb0EEELi3EED2Ev(ptr noundef nonnull align 8 dereferenceable(152) %4) #11
  %5 = getelementptr inbounds %class.ValueObjBlock.18, ptr %3, i32 0, i32 0
  call void @_ZN10OopStorage8ParStateILb1ELb0EED2Ev(ptr noundef nonnull align 8 dereferenceable(48) %5) #11
  ret void
}

; Function Attrs: mustprogress nounwind uwtable
define linkonce_odr hidden void @_ZN13ValueObjBlockIN10OopStorage8ParStateILb1ELb0EEELi5EED2Ev(ptr noundef nonnull align 8 dereferenceable(248) %0) unnamed_addr #1 comdat align 2 {
  %2 = alloca ptr, align 8
  store ptr %0, ptr %2, align 8
  %3 = load ptr, ptr %2, align 8
  %4 = getelementptr inbounds %class.ValueObjBlock, ptr %3, i32 0, i32 1
  call void @_ZN13ValueObjBlockIN10OopStorage8ParStateILb1ELb0EEELi4EED2Ev(ptr noundef nonnull align 8 dereferenceable(200) %4) #11
  %5 = getelementptr inbounds %class.ValueObjBlock, ptr %3, i32 0, i32 0
  call void @_ZN10OopStorage8ParStateILb1ELb0EED2Ev(ptr noundef nonnull align 8 dereferenceable(48) %5) #11
  ret void
}

; Function Attrs: mustprogress nounwind uwtable
define linkonce_odr hidden void @_ZN13ValueObjArrayIN10OopStorage8ParStateILb1ELb0EEELi5EED2Ev(ptr noundef nonnull align 8 dereferenceable(288) %0) unnamed_addr #1 comdat align 2 {
  %2 = alloca ptr, align 8
  store ptr %0, ptr %2, align 8
  %3 = load ptr, ptr %2, align 8
  %4 = getelementptr inbounds %struct.ValueObjArray, ptr %3, i32 0, i32 1
  call void @_ZN13ValueObjBlockIN10OopStorage8ParStateILb1ELb0EEELi5EED2Ev(ptr noundef nonnull align 8 dereferenceable(248) %4) #11
  ret void
}

; Function Attrs: mustprogress nounwind uwtable
define linkonce_odr hidden void @_ZN21OopStorageSetParStateIN13OopStorageSet8StrongIdELb1ELb0EED2Ev(ptr noundef nonnull align 8 dereferenceable(288) %0) unnamed_addr #1 comdat align 2 {
  %2 = alloca ptr, align 8
  store ptr %0, ptr %2, align 8
  %3 = load ptr, ptr %2, align 8
  %4 = getelementptr inbounds %class.OopStorageSetParState, ptr %3, i32 0, i32 0
  call void @_ZN13ValueObjArrayIN10OopStorage8ParStateILb1ELb0EEELi5EED2Ev(ptr noundef nonnull align 8 dereferenceable(288) %4) #11
  ret void
}

; Function Attrs: mustprogress nounwind uwtable
define linkonce_odr hidden void @_ZN27OopStorageSetStrongParStateILb1ELb0EED2Ev(ptr noundef nonnull align 8 dereferenceable(288) %0) unnamed_addr #1 comdat align 2 {
  %2 = alloca ptr, align 8
  store ptr %0, ptr %2, align 8
  %3 = load ptr, ptr %2, align 8
  call void @_ZN21OopStorageSetParStateIN13OopStorageSet8StrongIdELb1ELb0EED2Ev(ptr noundef nonnull align 8 dereferenceable(288) %3) #11
  ret void
}

; Function Attrs: mustprogress nounwind uwtable
define linkonce_odr hidden void @_ZN28ZOopStorageSetIteratorStrongD2Ev(ptr noundef nonnull align 8 dereferenceable(289) %0) unnamed_addr #1 comdat align 2 {
  %2 = alloca ptr, align 8
  store ptr %0, ptr %2, align 8
  %3 = load ptr, ptr %2, align 8
  %4 = getelementptr inbounds %class.ZOopStorageSetIteratorStrong, ptr %3, i32 0, i32 0
  call void @_ZN27OopStorageSetStrongParStateILb1ELb0EED2Ev(ptr noundef nonnull align 8 dereferenceable(288) %4) #11
  ret void
}

; Function Attrs: mustprogress nounwind uwtable
define linkonce_odr hidden void @_ZN20ZJavaThreadsIteratorD2Ev(ptr noundef nonnull align 8 dereferenceable(61) %0) unnamed_addr #1 comdat align 2 {
  %2 = alloca ptr, align 8
  store ptr %0, ptr %2, align 8
  %3 = load ptr, ptr %2, align 8
  %4 = getelementptr inbounds %class.ZJavaThreadsIterator, ptr %3, i32 0, i32 0
  call void @_ZN17ThreadsListHandleD1Ev(ptr noundef nonnull align 8 dereferenceable(56) %4) #11
  ret void
}

; Function Attrs: mustprogress nounwind uwtable
define linkonce_odr hidden void @_ZN23ZNMethodsIteratorStrongD2Ev(ptr noundef nonnull align 1 dereferenceable(3) %0) unnamed_addr #1 comdat align 2 {
  %2 = alloca ptr, align 8
  store ptr %0, ptr %2, align 8
  %3 = load ptr, ptr %2, align 8
  call void @_ZN21ZNMethodsIteratorImplD2Ev(ptr noundef nonnull align 1 dereferenceable(3) %3) #11
  ret void
}

; Function Attrs: mustprogress nounwind uwtable
define linkonce_odr hidden void @_ZN14ZParallelApplyI28ZOopStorageSetIteratorStrongED2Ev(ptr noundef nonnull align 8 dereferenceable(297) %0) unnamed_addr #1 comdat align 2 {
  %2 = alloca ptr, align 8
  store ptr %0, ptr %2, align 8
  %3 = load ptr, ptr %2, align 8
  %4 = getelementptr inbounds %class.ZParallelApply, ptr %3, i32 0, i32 0
  call void @_ZN28ZOopStorageSetIteratorStrongD2Ev(ptr noundef nonnull align 8 dereferenceable(289) %4) #11
  ret void
}

; Function Attrs: mustprogress nounwind uwtable
define linkonce_odr hidden void @_ZN14ZParallelApplyI20ZJavaThreadsIteratorED2Ev(ptr noundef nonnull align 8 dereferenceable(65) %0) unnamed_addr #1 comdat align 2 {
  %2 = alloca ptr, align 8
  store ptr %0, ptr %2, align 8
  %3 = load ptr, ptr %2, align 8
  %4 = getelementptr inbounds %class.ZParallelApply.34, ptr %3, i32 0, i32 0
  call void @_ZN20ZJavaThreadsIteratorD2Ev(ptr noundef nonnull align 8 dereferenceable(61) %4) #11
  ret void
}

; Function Attrs: mustprogress nounwind uwtable
define linkonce_odr hidden void @_ZN14ZParallelApplyI23ZNMethodsIteratorStrongED2Ev(ptr noundef nonnull align 1 dereferenceable(4) %0) unnamed_addr #1 comdat align 2 {
  %2 = alloca ptr, align 8
  store ptr %0, ptr %2, align 8
  %3 = load ptr, ptr %2, align 8
  %4 = getelementptr inbounds %class.ZParallelApply.38, ptr %3, i32 0, i32 0
  call void @_ZN23ZNMethodsIteratorStrongD2Ev(ptr noundef nonnull align 1 dereferenceable(3) %4) #11
  ret void
}

; Function Attrs: mustprogress nounwind uwtable
define linkonce_odr hidden void @_ZN27ZRootsIteratorStrongColoredD2Ev(ptr noundef nonnull align 8 dereferenceable(306) %0) unnamed_addr #1 comdat align 2 {
  %2 = alloca ptr, align 8
  store ptr %0, ptr %2, align 8
  %3 = load ptr, ptr %2, align 8
  %4 = getelementptr inbounds %class.ZRootsIteratorStrongColored, ptr %3, i32 0, i32 0
  call void @_ZN14ZParallelApplyI28ZOopStorageSetIteratorStrongED2Ev(ptr noundef nonnull align 8 dereferenceable(297) %4) #11
  ret void
}

; Function Attrs: mustprogress nounwind uwtable
define linkonce_odr hidden void @_ZN29ZRootsIteratorStrongUncoloredD2Ev(ptr noundef nonnull align 8 dereferenceable(76) %0) unnamed_addr #1 comdat align 2 {
  %2 = alloca ptr, align 8
  store ptr %0, ptr %2, align 8
  %3 = load ptr, ptr %2, align 8
  %4 = getelementptr inbounds %class.ZRootsIteratorStrongUncolored, ptr %3, i32 0, i32 1
  call void @_ZN14ZParallelApplyI23ZNMethodsIteratorStrongED2Ev(ptr noundef nonnull align 1 dereferenceable(4) %4) #11
  %5 = getelementptr inbounds %class.ZRootsIteratorStrongUncolored, ptr %3, i32 0, i32 0
  call void @_ZN14ZParallelApplyI20ZJavaThreadsIteratorED2Ev(ptr noundef nonnull align 8 dereferenceable(65) %5) #11
  ret void
}

; Function Attrs: mustprogress nounwind uwtable
define linkonce_odr hidden void @_ZN18ZMarkThreadClosureD2Ev(ptr noundef nonnull align 8 dereferenceable(8) %0) unnamed_addr #1 comdat align 2 {
  %2 = alloca ptr, align 8
  store ptr %0, ptr %2, align 8
  %3 = load ptr, ptr %2, align 8
  store ptr getelementptr inbounds inrange(-16, 8) ({ [3 x ptr] }, ptr @_ZTV18ZMarkThreadClosure, i32 0, i32 0, i32 2), ptr %3, align 8
  call void @_ZN23ZThreadLocalAllocBuffer18publish_statisticsEv()
  ret void
}

; Function Attrs: mustprogress nounwind uwtable
define linkonce_odr hidden void @_ZN26SuspendibleThreadSetJoinerD2Ev(ptr noundef nonnull align 1 dereferenceable(1) %0) unnamed_addr #1 comdat align 2 {
  %2 = alloca ptr, align 8
  store ptr %0, ptr %2, align 8
  %3 = load ptr, ptr %2, align 8
  %4 = getelementptr inbounds %class.SuspendibleThreadSetJoiner, ptr %3, i32 0, i32 0
  %5 = load i8, ptr %4, align 1
  %6 = trunc i8 %5 to i1
  br i1 %6, label %7, label %8

7:                                                ; preds = %1
  call void @_ZN20SuspendibleThreadSet5leaveEv()
  br label %8

8:                                                ; preds = %7, %1
  ret void
}

; Function Attrs: mustprogress nounwind uwtable
define linkonce_odr hidden void @_ZN17ZMarkOldRootsTaskD2Ev(ptr noundef nonnull align 8 dereferenceable(496) %0) unnamed_addr #1 comdat align 2 {
  %2 = alloca ptr, align 8
  store ptr %0, ptr %2, align 8
  %3 = load ptr, ptr %2, align 8
  store ptr getelementptr inbounds inrange(-16, 8) ({ [3 x ptr] }, ptr @_ZTV17ZMarkOldRootsTask, i32 0, i32 0, i32 2), ptr %3, align 8
  %4 = getelementptr inbounds %class.ZMarkOldRootsTask, ptr %3, i32 0, i32 6
  call void @_ZN18ZMarkThreadClosureD2Ev(ptr noundef nonnull align 8 dereferenceable(8) %4) #11
  %5 = getelementptr inbounds %class.ZMarkOldRootsTask, ptr %3, i32 0, i32 3
  call void @_ZN29ZRootsIteratorStrongUncoloredD2Ev(ptr noundef nonnull align 8 dereferenceable(76) %5) #11
  %6 = getelementptr inbounds %class.ZMarkOldRootsTask, ptr %3, i32 0, i32 2
  call void @_ZN27ZRootsIteratorStrongColoredD2Ev(ptr noundef nonnull align 8 dereferenceable(306) %6) #11
  ret void
}

; Function Attrs: mustprogress nounwind uwtable
define hidden noundef ptr @_ZNK5ZMark7workersEv(ptr noundef nonnull align 64 dereferenceable(2652) %0) #1 align 2 {
  %2 = alloca ptr, align 8
  store ptr %0, ptr %2, align 8
  %3 = load ptr, ptr %2, align 8
  %4 = getelementptr inbounds %class.ZMark, ptr %3, i32 0, i32 0
  %5 = load ptr, ptr %4, align 64
  %6 = call noundef ptr @_ZN11ZGeneration7workersEv(ptr noundef nonnull align 64 dereferenceable(6592) %5)
  ret ptr %6
}

; Function Attrs: mustprogress nounwind uwtable
define linkonce_odr hidden void @_ZN26SuspendibleThreadSetJoinerC2Eb(ptr noundef nonnull align 1 dereferenceable(1) %0, i1 noundef zeroext %1) unnamed_addr #1 comdat align 2 {
  %3 = alloca ptr, align 8
  %4 = alloca i8, align 1
  store ptr %0, ptr %3, align 8
  %5 = zext i1 %1 to i8
  store i8 %5, ptr %4, align 1
  %6 = load ptr, ptr %3, align 8
  %7 = getelementptr inbounds %class.SuspendibleThreadSetJoiner, ptr %6, i32 0, i32 0
  %8 = load i8, ptr %4, align 1
  %9 = trunc i8 %8 to i1
  %10 = zext i1 %9 to i8
  store i8 %10, ptr %7, align 1
  %11 = getelementptr inbounds %class.SuspendibleThreadSetJoiner, ptr %6, i32 0, i32 0
  %12 = load i8, ptr %11, align 1
  %13 = trunc i8 %12 to i1
  br i1 %13, label %14, label %15

14:                                               ; preds = %2
  call void @_ZN20SuspendibleThreadSet4joinEv()
  br label %15

15:                                               ; preds = %14, %2
  ret void
}

; Function Attrs: mustprogress nounwind uwtable
define hidden void @_ZN5ZMark14mark_old_rootsEv(ptr noundef nonnull align 64 dereferenceable(2652) %0) #1 align 2 {
  %2 = alloca ptr, align 8
  %3 = alloca %class.SuspendibleThreadSetJoiner, align 1
  %4 = alloca %class.ZMarkOldRootsTask, align 8
  store ptr %0, ptr %2, align 8
  %5 = load ptr, ptr %2, align 8
  call void @_ZN26SuspendibleThreadSetJoinerC2Eb(ptr noundef nonnull align 1 dereferenceable(1) %3, i1 noundef zeroext true)
  call void @_ZN17ZMarkOldRootsTaskC2EP5ZMark(ptr noundef nonnull align 8 dereferenceable(496) %4, ptr noundef %5)
  %6 = call noundef ptr @_ZNK5ZMark7workersEv(ptr noundef nonnull align 64 dereferenceable(2652) %5)
  call void @_ZN8ZWorkers3runEP5ZTask(ptr noundef nonnull align 8 dereferenceable(184) %6, ptr noundef %4)
  call void @_ZN17ZMarkOldRootsTaskD2Ev(ptr noundef nonnull align 8 dereferenceable(496) %4) #11
  call void @_ZN26SuspendibleThreadSetJoinerD2Ev(ptr noundef nonnull align 1 dereferenceable(1) %3) #11
  ret void
}