; Function Attrs: mustprogress nounwind uwtable
define hidden void @_ZN5ZMark14mark_old_rootsEv(ptr noundef nonnull align 64 dereferenceable(2652) %0) local_unnamed_addr #0 align 2 {
_ZN26SuspendibleThreadSetJoinerD2Ev.exit:
  %1 = alloca %class.ZMarkOldRootsTask, align 8
  tail call void @_ZN20SuspendibleThreadSet4joinEv() #15
  call void @_ZN17ZMarkOldRootsTaskC2EP5ZMark(ptr noundef nonnull align 8 dereferenceable(496) %1, ptr noundef nonnull %0)
  %2 = load ptr, ptr %0, align 64
  %3 = call noundef ptr @_ZN11ZGeneration7workersEv(ptr noundef nonnull align 64 dereferenceable(6592) %2) #15
  call void @_ZN8ZWorkers3runEP5ZTask(ptr noundef nonnull align 8 dereferenceable(184) %3, ptr noundef nonnull %1) #15
  store ptr getelementptr inbounds inrange(-16, 8) (i8, ptr @_ZTV17ZMarkOldRootsTask, i64 16), ptr %1, align 8
  %4 = getelementptr inbounds i8, ptr %1, i64 472
  store ptr getelementptr inbounds inrange(-16, 8) (i8, ptr @_ZTV18ZMarkThreadClosure, i64 16), ptr %4, align 8
  call void @_ZN23ZThreadLocalAllocBuffer18publish_statisticsEv() #15
  %5 = getelementptr inbounds i8, ptr %1, i64 360
  %6 = getelementptr inbounds i8, ptr %1, i64 432
  call void @_ZN21ZNMethodsIteratorImplD2Ev(ptr noundef nonnull align 1 dereferenceable(3) %6) #15
  call void @_ZN17ThreadsListHandleD1Ev(ptr noundef nonnull align 8 dereferenceable(56) %5) #15
  %7 = getelementptr inbounds i8, ptr %1, i64 88
  %8 = getelementptr inbounds i8, ptr %1, i64 136
  %9 = getelementptr inbounds i8, ptr %1, i64 184
  %10 = getelementptr inbounds i8, ptr %1, i64 232
  %11 = getelementptr inbounds i8, ptr %1, i64 280
  call void @_ZN10OopStorage13BasicParStateD1Ev(ptr noundef nonnull align 8 dereferenceable(48) %11) #15
  call void @_ZN10OopStorage13BasicParStateD1Ev(ptr noundef nonnull align 8 dereferenceable(48) %10) #15
  call void @_ZN10OopStorage13BasicParStateD1Ev(ptr noundef nonnull align 8 dereferenceable(48) %9) #15
  call void @_ZN10OopStorage13BasicParStateD1Ev(ptr noundef nonnull align 8 dereferenceable(48) %8) #15
  call void @_ZN10OopStorage13BasicParStateD1Ev(ptr noundef nonnull align 8 dereferenceable(48) %7) #15
  call void @_ZN20SuspendibleThreadSet5leaveEv() #15
  ret void
}